target datalayout = "e-m:e-p270:32:32-p271:32:32-p272:64:64-i64:64-i128:128-f80:128-n8:16:32:64-S128"
target triple = "x86_64-pc-linux-gnu"

%"class.net::QuicUnackedPacketMap" = type { i64, i64, %"class.std::deque", i64, i64, i64 }
%"class.std::deque" = type { %"class.std::_Deque_base" }
%"class.std::_Deque_base" = type { %"struct.std::_Deque_base<net::TransmissionInfo, std::allocator<net::TransmissionInfo>>::_Deque_impl" }
%"struct.std::_Deque_base<net::TransmissionInfo, std::allocator<net::TransmissionInfo>>::_Deque_impl" = type { %"struct.std::_Deque_base<net::TransmissionInfo, std::allocator<net::TransmissionInfo>>::_Deque_impl_data" }
%"struct.std::_Deque_base<net::TransmissionInfo, std::allocator<net::TransmissionInfo>>::_Deque_impl_data" = type { ptr, i64, %"struct.std::_Deque_iterator", %"struct.std::_Deque_iterator" }
%"struct.std::_Deque_iterator" = type { ptr, ptr, ptr, ptr }
%"struct.net::TransmissionInfo" = type { %"class.std::vector", i8, i8, i16, %"class.net::QuicTime", i8, i8, i8, i8, i16, i64, %"class.std::__cxx11::list" }
%"class.std::vector" = type { %"struct.std::_Vector_base" }
%"struct.std::_Vector_base" = type { %"struct.std::_Vector_base<net::QuicFrame, std::allocator<net::QuicFrame>>::_Vector_impl" }
%"struct.std::_Vector_base<net::QuicFrame, std::allocator<net::QuicFrame>>::_Vector_impl" = type { %"struct.std::_Vector_base<net::QuicFrame, std::allocator<net::QuicFrame>>::_Vector_impl_data" }
%"struct.std::_Vector_base<net::QuicFrame, std::allocator<net::QuicFrame>>::_Vector_impl_data" = type { ptr, ptr, ptr }
%"class.net::QuicTime" = type { i64 }
%"class.std::__cxx11::list" = type { %"class.std::__cxx11::_List_base" }
%"class.std::__cxx11::_List_base" = type { %"struct.std::__cxx11::_List_base<net::AckListenerWrapper, std::allocator<net::AckListenerWrapper>>::_List_impl" }
%"struct.std::__cxx11::_List_base<net::AckListenerWrapper, std::allocator<net::AckListenerWrapper>>::_List_impl" = type { %"struct.std::__detail::_List_node_header" }
%"struct.std::__detail::_List_node_header" = type { %"struct.std::__detail::_List_node_base", i64 }
%"struct.std::__detail::_List_node_base" = type { ptr, ptr }
%"class.logging::LogMessageVoidify" = type { i8 }
%"class.logging::LogMessage" = type <{ i32, [4 x i8], %"class.std::__cxx11::basic_ostringstream", i64, ptr, i32, [4 x i8] }>
%"class.std::__cxx11::basic_ostringstream" = type { %"class.std::basic_ostream.base", %"class.std::__cxx11::basic_stringbuf", %"class.std::basic_ios" }
%"class.std::basic_ostream.base" = type { ptr }
%"class.std::__cxx11::basic_stringbuf" = type { %"class.std::basic_streambuf", i32, %"class.std::__cxx11::basic_string" }
%"class.std::basic_streambuf" = type { ptr, ptr, ptr, ptr, ptr, ptr, ptr, %"class.std::locale" }
%"class.std::locale" = type { ptr }
%"class.std::__cxx11::basic_string" = type { %"struct.std::__cxx11::basic_string<char>::_Alloc_hider", i64, %union.anon }
%"struct.std::__cxx11::basic_string<char>::_Alloc_hider" = type { ptr }
%union.anon = type { i64, [8 x i8] }
%"class.std::basic_ios" = type { %"class.std::ios_base", ptr, i8, i8, ptr, ptr, ptr, ptr }
%"class.std::ios_base" = type { ptr, i64, i64, i32, i32, i32, ptr, %"struct.std::ios_base::_Words", [8 x %"struct.std::ios_base::_Words"], i32, ptr, %"class.std::locale" }
%"struct.std::ios_base::_Words" = type { ptr, i64 }

@.str = private unnamed_addr constant [138 x i8] c"generated/home/dtcxzyw/WorkSpace/Projects/compilers/llvm-opt-benchmark/bench/libquic/libquic/src/net/quic/core/quic_unacked_packet_map.cc\00", align 1

; Function Attrs: mustprogress nounwind uwtable
define linkonce_odr void @_ZN7logging17LogMessageVoidifyanERSo(ptr noundef nonnull align 1 dereferenceable(1) %0, ptr noundef nonnull align 8 dereferenceable(8) %1) #1 comdat align 2 {
  %3 = alloca ptr, align 8
  %4 = alloca ptr, align 8
  store ptr %0, ptr %3, align 8, !tbaa !71
  store ptr %1, ptr %4, align 8, !tbaa !73
  ret void
}

; Function Attrs: mustprogress nounwind uwtable
define linkonce_odr noundef nonnull align 8 dereferenceable(8) ptr @_ZN7logging10LogMessage6streamEv(ptr noundef nonnull align 8 dereferenceable(404) %0) #1 comdat align 2 {
  %2 = alloca ptr, align 8
  store ptr %0, ptr %2, align 8, !tbaa !75
  %3 = load ptr, ptr %2, align 8
  %4 = getelementptr inbounds nuw %"class.logging::LogMessage", ptr %3, i32 0, i32 2
  ret ptr %4
}

; Function Attrs: mustprogress nounwind uwtable
define linkonce_odr void @_ZN7logging17LogMessageVoidifyC2Ev(ptr noundef nonnull align 1 dereferenceable(1) %0) unnamed_addr #1 comdat align 2 {
  %2 = alloca ptr, align 8
  store ptr %0, ptr %2, align 8, !tbaa !71
  ret void
}

; Function Attrs: mustprogress uwtable
define void @_ZN3net20QuicUnackedPacketMap18RemoveFromInFlightEPNS_16TransmissionInfoE(ptr noundef nonnull align 8 dereferenceable(120) %0, ptr noundef %1) #0 align 2 personality ptr @__gxx_personality_v0 {
  %3 = alloca ptr, align 8
  %4 = alloca ptr, align 8
  %5 = alloca %"class.logging::LogMessageVoidify", align 1
  %6 = alloca %"class.logging::LogMessage", align 8
  %7 = alloca i1, align 1
  %8 = alloca i1, align 1
  %9 = alloca ptr, align 8
  %10 = alloca i32, align 4
  store ptr %0, ptr %3, align 8, !tbaa !3
  store ptr %1, ptr %4, align 8, !tbaa !83
  %11 = load ptr, ptr %3, align 8
  %12 = load ptr, ptr %4, align 8, !tbaa !83
  %13 = getelementptr inbounds nuw %"struct.net::TransmissionInfo", ptr %12, i32 0, i32 6
  %14 = load i8, ptr %13, align 1, !tbaa !70, !range !67, !noundef !68
  %15 = trunc i8 %14 to i1
  br i1 %15, label %16, label %57

16:                                               ; preds = %2
  %17 = call noundef zeroext i1 @_ZN7logging22ShouldCreateLogMessageEi(i32 noundef 2)
  call void @llvm.lifetime.start.p0(i64 1, ptr %5) #13
  store i1 false, ptr %7, align 1
  store i1 false, ptr %8, align 1
  br i1 %17, label %18, label %26

18:                                               ; preds = %16
  %19 = getelementptr inbounds nuw %"class.net::QuicUnackedPacketMap", ptr %11, i32 0, i32 4
  %20 = load i64, ptr %19, align 8, !tbaa !20
  %21 = load ptr, ptr %4, align 8, !tbaa !83
  %22 = getelementptr inbounds nuw %"struct.net::TransmissionInfo", ptr %21, i32 0, i32 3
  %23 = load i16, ptr %22, align 2, !tbaa !115
  %24 = zext i16 %23 to i64
  %25 = icmp ult i64 %20, %24
  br i1 %25, label %27, label %26

26:                                               ; preds = %18, %16
  br label %31

27:                                               ; preds = %18
  call void @_ZN7logging17LogMessageVoidifyC2Ev(ptr noundef nonnull align 1 dereferenceable(1) %5)
  call void @llvm.lifetime.start.p0(i64 408, ptr %6) #13
  store i1 true, ptr %7, align 1
  call void @_ZN7logging10LogMessageC1EPKcii(ptr noundef nonnull align 8 dereferenceable(404) %6, ptr noundef @.str, i32 noundef 239, i32 noundef 2)
  store i1 true, ptr %8, align 1
  %28 = invoke noundef nonnull align 8 dereferenceable(8) ptr @_ZN7logging10LogMessage6streamEv(ptr noundef nonnull align 8 dereferenceable(404) %6)
          to label %29 unwind label %47

29:                                               ; preds = %27
  invoke void @_ZN7logging17LogMessageVoidifyanERSo(ptr noundef nonnull align 1 dereferenceable(1) %5, ptr noundef nonnull align 8 dereferenceable(8) %28)
          to label %30 unwind label %47

30:                                               ; preds = %29
  br label %31

31:                                               ; preds = %30, %26
  %32 = load i1, ptr %8, align 1
  br i1 %32, label %33, label %34

33:                                               ; preds = %31
  call void @_ZN7logging10LogMessageD1Ev(ptr noundef nonnull align 8 dereferenceable(404) %6) #13
  br label %34

34:                                               ; preds = %33, %31
  %35 = load i1, ptr %7, align 1
  br i1 %35, label %36, label %37

36:                                               ; preds = %34
  call void @llvm.lifetime.end.p0(i64 408, ptr %6) #13
  br label %37

37:                                               ; preds = %36, %34
  call void @llvm.lifetime.end.p0(i64 1, ptr %5) #13
  %38 = load ptr, ptr %4, align 8, !tbaa !83
  %39 = getelementptr inbounds nuw %"struct.net::TransmissionInfo", ptr %38, i32 0, i32 3
  %40 = load i16, ptr %39, align 2, !tbaa !115
  %41 = zext i16 %40 to i64
  %42 = getelementptr inbounds nuw %"class.net::QuicUnackedPacketMap", ptr %11, i32 0, i32 4
  %43 = load i64, ptr %42, align 8, !tbaa !20
  %44 = sub i64 %43, %41
  store i64 %44, ptr %42, align 8, !tbaa !20
  %45 = load ptr, ptr %4, align 8, !tbaa !83
  %46 = getelementptr inbounds nuw %"struct.net::TransmissionInfo", ptr %45, i32 0, i32 6
  store i8 0, ptr %46, align 1, !tbaa !70
  br label %57

47:                                               ; preds = %29, %27
  %48 = landingpad { ptr, i32 }
          cleanup
  %49 = extractvalue { ptr, i32 } %48, 0
  store ptr %49, ptr %9, align 8
  %50 = extractvalue { ptr, i32 } %48, 1
  store i32 %50, ptr %10, align 4
  %51 = load i1, ptr %8, align 1
  br i1 %51, label %52, label %53

52:                                               ; preds = %47
  call void @_ZN7logging10LogMessageD1Ev(ptr noundef nonnull align 8 dereferenceable(404) %6) #13
  br label %53

53:                                               ; preds = %52, %47
  %54 = load i1, ptr %7, align 1
  br i1 %54, label %55, label %56

55:                                               ; preds = %53
  call void @llvm.lifetime.end.p0(i64 408, ptr %6) #13
  br label %56

56:                                               ; preds = %55, %53
  call void @llvm.lifetime.end.p0(i64 1, ptr %5) #13
  br label %58

57:                                               ; preds = %37, %2
  ret void

58:                                               ; preds = %56
  %59 = load ptr, ptr %9, align 8
  %60 = load i32, ptr %10, align 4
  %61 = insertvalue { ptr, i32 } poison, ptr %59, 0
  %62 = insertvalue { ptr, i32 } %61, i32 %60, 1
  resume { ptr, i32 } %62
}