; Function Attrs: mustprogress uwtable
define void @_ZN3net20QuicUnackedPacketMap18RemoveFromInFlightEPNS_16TransmissionInfoE(ptr noundef nonnull align 8 captures(none) dereferenceable(120) %0, ptr noundef captures(none) %1) local_unnamed_addr #0 align 2 personality ptr @__gxx_personality_v0 {
  %3 = alloca %"class.logging::LogMessage", align 8
  %4 = getelementptr inbounds nuw i8, ptr %1, i64 41
  %5 = load i8, ptr %4, align 1, !tbaa !77, !range !94, !noundef !95
  %6 = trunc nuw i8 %5 to i1
  br i1 %6, label %7, label %22

7:                                                ; preds = %2
  %8 = tail call noundef zeroext i1 @_ZN7logging22ShouldCreateLogMessageEi(i32 noundef 2)
  br i1 %8, label %9, label %.critedge

9:                                                ; preds = %7
  %10 = getelementptr inbounds nuw i8, ptr %0, i64 104
  %11 = load i64, ptr %10, align 8, !tbaa !76
  %12 = getelementptr inbounds nuw i8, ptr %1, i64 26
  %13 = load i16, ptr %12, align 2, !tbaa !133
  %14 = zext i16 %13 to i64
  %15 = icmp ult i64 %11, %14
  br i1 %15, label %.critedge9, label %.critedge

.critedge9:                                       ; preds = %9
  call void @llvm.lifetime.start.p0(i64 408, ptr nonnull %3) #17
  call void @_ZN7logging10LogMessageC1EPKcii(ptr noundef nonnull align 8 dereferenceable(404) %3, ptr noundef nonnull @.str, i32 noundef 239, i32 noundef 2)
  call void @_ZN7logging10LogMessageD1Ev(ptr noundef nonnull align 8 dereferenceable(404) %3) #17
  call void @llvm.lifetime.end.p0(i64 408, ptr nonnull %3) #17
  br label %.critedge

.critedge:                                        ; preds = %9, %7, %.critedge9
  %16 = getelementptr inbounds nuw i8, ptr %1, i64 26
  %17 = load i16, ptr %16, align 2, !tbaa !133
  %18 = zext i16 %17 to i64
  %19 = getelementptr inbounds nuw i8, ptr %0, i64 104
  %20 = load i64, ptr %19, align 8, !tbaa !76
  %21 = sub i64 %20, %18
  store i64 %21, ptr %19, align 8, !tbaa !76
  store i8 0, ptr %4, align 1, !tbaa !77
  br label %22

22:                                               ; preds = %.critedge, %2
  ret void
}